; Function Attrs: mustprogress nounwind uwtable
define dso_local void @_ZN4Json18StyledStreamWriterC2ENSt7__cxx1112basic_stringIcSt11char_traitsIcESaIcEEE(ptr noundef nonnull align 8 dereferenceable(105) %0, ptr noundef %1) unnamed_addr #6 align 2 {
  %3 = getelementptr inbounds i8, ptr %0, i64 32
  tail call void @llvm.memset.p0.i64(ptr noundef nonnull align 8 dereferenceable(32) %0, i8 0, i64 32, i1 false)
  tail call void @_ZNSt7__cxx1112basic_stringIcSt11char_traitsIcESaIcEEC1Ev(ptr noundef nonnull align 8 dereferenceable(32) %3) #19
  %4 = getelementptr inbounds i8, ptr %0, i64 64
  store i32 74, ptr %4, align 8
  %5 = getelementptr inbounds i8, ptr %0, i64 72
  tail call void @_ZNSt7__cxx1112basic_stringIcSt11char_traitsIcESaIcEEC1EOS4_(ptr noundef nonnull align 8 dereferenceable(32) %5, ptr noundef nonnull align 8 dereferenceable(32) %1) #19
  %6 = getelementptr inbounds i8, ptr %0, i64 104
  %7 = load i8, ptr %6, align 8
  %8 = and i8 %7, -4
  store i8 %8, ptr %6, align 8
  ret void
}